target datalayout = "e-m:e-p270:32:32-p271:32:32-p272:64:64-i64:64-i128:128-f80:128-n8:16:32:64-S128"
target triple = "x86_64-pc-linux-gnu"

%"class.llvm::AsmPrinter" = type <{ %"class.llvm::MachineFunctionPass", ptr, ptr, ptr, %"class.std::unique_ptr", ptr, ptr, ptr, ptr, ptr, ptr, ptr, ptr, ptr, %"class.llvm::MapVector", %"class.llvm::MapVector.2", ptr, %"class.llvm::DenseMap.11", ptr, %"class.std::unique_ptr.14", %"class.llvm::DenseMap.22", i8, [7 x i8], %"class.std::unique_ptr.25", %"class.llvm::DenseMap.33", ptr, ptr, %"class.llvm::SmallVector.36", i64, %"class.llvm::SmallVector.41", i64, %"class.llvm::StackMaps", %"class.std::unique_ptr.61", %"class.std::unique_ptr.69", ptr, %"class.std::unique_ptr.77", i32, i8, i8, i8, i8, %"class.llvm::SmallVector.85", ptr, i32, i32, i8, [7 x i8] }>
%"class.llvm::MachineFunctionPass" = type { %"class.llvm::FunctionPass.base", %"class.llvm::MachineFunctionProperties", %"class.llvm::MachineFunctionProperties", %"class.llvm::MachineFunctionProperties" }
%"class.llvm::FunctionPass.base" = type { %"class.llvm::Pass.base" }
%"class.llvm::Pass.base" = type <{ ptr, ptr, ptr, i32 }>
%"class.llvm::MachineFunctionProperties" = type { %"class.std::bitset" }
%"class.std::bitset" = type { %"struct.std::_Base_bitset" }
%"struct.std::_Base_bitset" = type { i64 }
%"class.std::unique_ptr" = type { %"struct.std::__uniq_ptr_data" }
%"struct.std::__uniq_ptr_data" = type { %"class.std::__uniq_ptr_impl" }
%"class.std::__uniq_ptr_impl" = type { %"class.std::tuple" }
%"class.std::tuple" = type { %"struct.std::_Tuple_impl" }
%"struct.std::_Tuple_impl" = type { %"struct.std::_Head_base.1" }
%"struct.std::_Head_base.1" = type { ptr }
%"class.llvm::MapVector" = type { %"class.llvm::DenseMap", %"class.llvm::SmallVector" }
%"class.llvm::DenseMap" = type <{ ptr, i32, i32, i32, [4 x i8] }>
%"class.llvm::SmallVector" = type { %"class.llvm::SmallVectorImpl" }
%"class.llvm::SmallVectorImpl" = type { %"class.llvm::SmallVectorTemplateBase" }
%"class.llvm::SmallVectorTemplateBase" = type { %"class.llvm::SmallVectorTemplateCommon" }
%"class.llvm::SmallVectorTemplateCommon" = type { %"class.llvm::SmallVectorBase" }
%"class.llvm::SmallVectorBase" = type { ptr, i32, i32 }
%"class.llvm::MapVector.2" = type { %"class.llvm::DenseMap.3", %"class.llvm::SmallVector.6" }
%"class.llvm::DenseMap.3" = type <{ ptr, i32, i32, i32, [4 x i8] }>
%"class.llvm::SmallVector.6" = type { %"class.llvm::SmallVectorImpl.7" }
%"class.llvm::SmallVectorImpl.7" = type { %"class.llvm::SmallVectorTemplateBase.8" }
%"class.llvm::SmallVectorTemplateBase.8" = type { %"class.llvm::SmallVectorTemplateCommon.9" }
%"class.llvm::SmallVectorTemplateCommon.9" = type { %"class.llvm::SmallVectorBase" }
%"class.llvm::DenseMap.11" = type <{ ptr, i32, i32, i32, [4 x i8] }>
%"class.std::unique_ptr.14" = type { %"struct.std::__uniq_ptr_data.15" }
%"struct.std::__uniq_ptr_data.15" = type { %"class.std::__uniq_ptr_impl.16" }
%"class.std::__uniq_ptr_impl.16" = type { %"class.std::tuple.17" }
%"class.std::tuple.17" = type { %"struct.std::_Tuple_impl.18" }
%"struct.std::_Tuple_impl.18" = type { %"struct.std::_Head_base.21" }
%"struct.std::_Head_base.21" = type { ptr }
%"class.llvm::DenseMap.22" = type <{ ptr, i32, i32, i32, [4 x i8] }>
%"class.std::unique_ptr.25" = type { %"struct.std::__uniq_ptr_data.26" }
%"struct.std::__uniq_ptr_data.26" = type { %"class.std::__uniq_ptr_impl.27" }
%"class.std::__uniq_ptr_impl.27" = type { %"class.std::tuple.28" }
%"class.std::tuple.28" = type { %"struct.std::_Tuple_impl.29" }
%"struct.std::_Tuple_impl.29" = type { %"struct.std::_Head_base.32" }
%"struct.std::_Head_base.32" = type { ptr }
%"class.llvm::DenseMap.33" = type <{ ptr, i32, i32, i32, [4 x i8] }>
%"class.llvm::SmallVector.36" = type { %"class.llvm::SmallVectorImpl.37", %"struct.llvm::SmallVectorStorage.40" }
%"class.llvm::SmallVectorImpl.37" = type { %"class.llvm::SmallVectorTemplateBase.38" }
%"class.llvm::SmallVectorTemplateBase.38" = type { %"class.llvm::SmallVectorTemplateCommon.39" }
%"class.llvm::SmallVectorTemplateCommon.39" = type { %"class.llvm::SmallVectorBase" }
%"struct.llvm::SmallVectorStorage.40" = type { [16 x i8] }
%"class.llvm::SmallVector.41" = type { %"class.llvm::SmallVectorImpl.42", %"struct.llvm::SmallVectorStorage.45" }
%"class.llvm::SmallVectorImpl.42" = type { %"class.llvm::SmallVectorTemplateBase.43" }
%"class.llvm::SmallVectorTemplateBase.43" = type { %"class.llvm::SmallVectorTemplateCommon.44" }
%"class.llvm::SmallVectorTemplateCommon.44" = type { %"class.llvm::SmallVectorBase" }
%"struct.llvm::SmallVectorStorage.45" = type { [8 x i8] }
%"class.llvm::StackMaps" = type { ptr, %"class.std::vector", %"class.llvm::MapVector.46", %"class.llvm::MapVector.55" }
%"class.std::vector" = type { %"struct.std::_Vector_base" }
%"struct.std::_Vector_base" = type { %"struct.std::_Vector_base<llvm::StackMaps::CallsiteInfo, std::allocator<llvm::StackMaps::CallsiteInfo>>::_Vector_impl" }
%"struct.std::_Vector_base<llvm::StackMaps::CallsiteInfo, std::allocator<llvm::StackMaps::CallsiteInfo>>::_Vector_impl" = type { %"struct.std::_Vector_base<llvm::StackMaps::CallsiteInfo, std::allocator<llvm::StackMaps::CallsiteInfo>>::_Vector_impl_data" }
%"struct.std::_Vector_base<llvm::StackMaps::CallsiteInfo, std::allocator<llvm::StackMaps::CallsiteInfo>>::_Vector_impl_data" = type { ptr, ptr, ptr }
%"class.llvm::MapVector.46" = type { %"class.llvm::DenseMap.47", %"class.llvm::SmallVector.50" }
%"class.llvm::DenseMap.47" = type <{ ptr, i32, i32, i32, [4 x i8] }>
%"class.llvm::SmallVector.50" = type { %"class.llvm::SmallVectorImpl.51" }
%"class.llvm::SmallVectorImpl.51" = type { %"class.llvm::SmallVectorTemplateBase.52" }
%"class.llvm::SmallVectorTemplateBase.52" = type { %"class.llvm::SmallVectorTemplateCommon.53" }
%"class.llvm::SmallVectorTemplateCommon.53" = type { %"class.llvm::SmallVectorBase" }
%"class.llvm::MapVector.55" = type { %"class.llvm::DenseMap.3", %"class.llvm::SmallVector.56" }
%"class.llvm::SmallVector.56" = type { %"class.llvm::SmallVectorImpl.57" }
%"class.llvm::SmallVectorImpl.57" = type { %"class.llvm::SmallVectorTemplateBase.58" }
%"class.llvm::SmallVectorTemplateBase.58" = type { %"class.llvm::SmallVectorTemplateCommon.59" }
%"class.llvm::SmallVectorTemplateCommon.59" = type { %"class.llvm::SmallVectorBase" }
%"class.std::unique_ptr.61" = type { %"struct.std::__uniq_ptr_data.62" }
%"struct.std::__uniq_ptr_data.62" = type { %"class.std::__uniq_ptr_impl.63" }
%"class.std::__uniq_ptr_impl.63" = type { %"class.std::tuple.64" }
%"class.std::tuple.64" = type { %"struct.std::_Tuple_impl.65" }
%"struct.std::_Tuple_impl.65" = type { %"struct.std::_Head_base.68" }
%"struct.std::_Head_base.68" = type { ptr }
%"class.std::unique_ptr.69" = type { %"struct.std::__uniq_ptr_data.70" }
%"struct.std::__uniq_ptr_data.70" = type { %"class.std::__uniq_ptr_impl.71" }
%"class.std::__uniq_ptr_impl.71" = type { %"class.std::tuple.72" }
%"class.std::tuple.72" = type { %"struct.std::_Tuple_impl.73" }
%"struct.std::_Tuple_impl.73" = type { %"struct.std::_Head_base.76" }
%"struct.std::_Head_base.76" = type { ptr }
%"class.std::unique_ptr.77" = type { %"struct.std::__uniq_ptr_data.78" }
%"struct.std::__uniq_ptr_data.78" = type { %"class.std::__uniq_ptr_impl.79" }
%"class.std::__uniq_ptr_impl.79" = type { %"class.std::tuple.80" }
%"class.std::tuple.80" = type { %"struct.std::_Tuple_impl.81" }
%"struct.std::_Tuple_impl.81" = type { %"struct.std::_Head_base.84" }
%"struct.std::_Head_base.84" = type { ptr }
%"class.llvm::SmallVector.85" = type { %"class.llvm::SmallVectorImpl.86", %"struct.llvm::SmallVectorStorage.89" }
%"class.llvm::SmallVectorImpl.86" = type { %"class.llvm::SmallVectorTemplateBase.87" }
%"class.llvm::SmallVectorTemplateBase.87" = type { %"class.llvm::SmallVectorTemplateCommon.88" }
%"class.llvm::SmallVectorTemplateCommon.88" = type { %"class.llvm::SmallVectorBase" }
%"struct.llvm::SmallVectorStorage.89" = type { [160 x i8] }

; Function Attrs: mustprogress nounwind uwtable
define linkonce_odr hidden noundef nonnull align 8 dereferenceable(8) ptr @_ZNSt10_Head_baseILm0EPN4llvm10MCStreamerELb0EE7_M_headERKS3_(ptr noundef nonnull align 8 dereferenceable(8) %0) #0 comdat align 2 {
  %2 = alloca ptr, align 8
  store ptr %0, ptr %2, align 8
  %3 = load ptr, ptr %2, align 8
  %4 = getelementptr inbounds nuw %"struct.std::_Head_base.1", ptr %3, i32 0, i32 0
  ret ptr %4
}

; Function Attrs: mustprogress nounwind uwtable
define linkonce_odr hidden noundef nonnull align 8 dereferenceable(8) ptr @_ZNSt11_Tuple_implILm0EJPN4llvm10MCStreamerESt14default_deleteIS1_EEE7_M_headERKS5_(ptr noundef nonnull align 8 dereferenceable(8) %0) #0 comdat align 2 {
  %2 = alloca ptr, align 8
  store ptr %0, ptr %2, align 8
  %3 = load ptr, ptr %2, align 8
  %4 = call noundef nonnull align 8 dereferenceable(8) ptr @_ZNSt10_Head_baseILm0EPN4llvm10MCStreamerELb0EE7_M_headERKS3_(ptr noundef nonnull align 8 dereferenceable(8) %3) #5
  ret ptr %4
}

; Function Attrs: mustprogress nounwind uwtable
define linkonce_odr noundef nonnull align 8 dereferenceable(8) ptr @_ZSt12__get_helperILm0EPN4llvm10MCStreamerEJSt14default_deleteIS1_EEERKT0_RKSt11_Tuple_implIXT_EJS5_DpT1_EE(ptr noundef nonnull align 8 dereferenceable(8) %0) #0 comdat {
  %2 = alloca ptr, align 8
  store ptr %0, ptr %2, align 8
  %3 = load ptr, ptr %2, align 8
  %4 = call noundef nonnull align 8 dereferenceable(8) ptr @_ZNSt11_Tuple_implILm0EJPN4llvm10MCStreamerESt14default_deleteIS1_EEE7_M_headERKS5_(ptr noundef nonnull align 8 dereferenceable(8) %3) #5
  ret ptr %4
}

; Function Attrs: mustprogress nounwind uwtable
define linkonce_odr noundef nonnull align 8 dereferenceable(8) ptr @_ZSt3getILm0EJPN4llvm10MCStreamerESt14default_deleteIS1_EEERKNSt13tuple_elementIXT_ESt5tupleIJDpT0_EEE4typeERKS9_(ptr noundef nonnull align 8 dereferenceable(8) %0) #0 comdat {
  %2 = alloca ptr, align 8
  store ptr %0, ptr %2, align 8
  %3 = load ptr, ptr %2, align 8
  %4 = call noundef nonnull align 8 dereferenceable(8) ptr @_ZSt12__get_helperILm0EPN4llvm10MCStreamerEJSt14default_deleteIS1_EEERKT0_RKSt11_Tuple_implIXT_EJS5_DpT1_EE(ptr noundef nonnull align 8 dereferenceable(8) %3) #5
  ret ptr %4
}

; Function Attrs: mustprogress nounwind uwtable
define linkonce_odr hidden noundef ptr @_ZNKSt15__uniq_ptr_implIN4llvm10MCStreamerESt14default_deleteIS1_EE6_M_ptrEv(ptr noundef nonnull align 8 dereferenceable(8) %0) #0 comdat align 2 {
  %2 = alloca ptr, align 8
  store ptr %0, ptr %2, align 8
  %3 = load ptr, ptr %2, align 8
  %4 = getelementptr inbounds nuw %"class.std::__uniq_ptr_impl", ptr %3, i32 0, i32 0
  %5 = call noundef nonnull align 8 dereferenceable(8) ptr @_ZSt3getILm0EJPN4llvm10MCStreamerESt14default_deleteIS1_EEERKNSt13tuple_elementIXT_ESt5tupleIJDpT0_EEE4typeERKS9_(ptr noundef nonnull align 8 dereferenceable(8) %4) #5
  %6 = load ptr, ptr %5, align 8
  ret ptr %6
}

; Function Attrs: mustprogress nounwind uwtable
define linkonce_odr hidden noundef ptr @_ZNKSt10unique_ptrIN4llvm10MCStreamerESt14default_deleteIS1_EE3getEv(ptr noundef nonnull align 8 dereferenceable(8) %0) #0 comdat align 2 {
  %2 = alloca ptr, align 8
  store ptr %0, ptr %2, align 8
  %3 = load ptr, ptr %2, align 8
  %4 = getelementptr inbounds nuw %"class.std::unique_ptr", ptr %3, i32 0, i32 0
  %5 = call noundef ptr @_ZNKSt15__uniq_ptr_implIN4llvm10MCStreamerESt14default_deleteIS1_EE6_M_ptrEv(ptr noundef nonnull align 8 dereferenceable(8) %4) #5
  ret ptr %5
}

; Function Attrs: mustprogress nounwind uwtable
define linkonce_odr hidden noundef ptr @_ZNKSt10unique_ptrIN4llvm10MCStreamerESt14default_deleteIS1_EEptEv(ptr noundef nonnull align 8 dereferenceable(8) %0) #0 comdat align 2 {
  %2 = alloca ptr, align 8
  store ptr %0, ptr %2, align 8
  %3 = load ptr, ptr %2, align 8
  %4 = call noundef ptr @_ZNKSt10unique_ptrIN4llvm10MCStreamerESt14default_deleteIS1_EE3getEv(ptr noundef nonnull align 8 dereferenceable(8) %3) #5
  ret ptr %4
}

; Function Attrs: mustprogress nounwind uwtable
define dso_local noundef ptr @_ZNK4llvm10AsmPrinter19emitDwarfUnitLengthERKNS_5TwineES3_(ptr noundef nonnull align 8 dereferenceable(785) %0, ptr noundef nonnull align 8 dereferenceable(34) %1, ptr noundef nonnull align 8 dereferenceable(34) %2) #0 align 2 {
  %4 = alloca ptr, align 8
  %5 = alloca ptr, align 8
  %6 = alloca ptr, align 8
  store ptr %0, ptr %4, align 8
  store ptr %1, ptr %5, align 8
  store ptr %2, ptr %6, align 8
  %7 = load ptr, ptr %4, align 8
  %8 = getelementptr inbounds nuw %"class.llvm::AsmPrinter", ptr %7, i32 0, i32 4
  %9 = call noundef ptr @_ZNKSt10unique_ptrIN4llvm10MCStreamerESt14default_deleteIS1_EEptEv(ptr noundef nonnull align 8 dereferenceable(8) %8) #5
  %10 = load ptr, ptr %5, align 8
  %11 = load ptr, ptr %6, align 8
  %12 = load ptr, ptr %9, align 8
  %13 = getelementptr inbounds ptr, ptr %12, i64 159
  %14 = load ptr, ptr %13, align 8
  %15 = call noundef ptr %14(ptr noundef nonnull align 8 dereferenceable(288) %9, ptr noundef nonnull align 8 dereferenceable(34) %10, ptr noundef nonnull align 8 dereferenceable(34) %11)
  ret ptr %15
}